target datalayout = "e-m:e-p270:32:32-p271:32:32-p272:64:64-i64:64-i128:128-f80:128-n8:16:32:64-S128"
target triple = "x86_64-pc-linux-gnu"

%struct.Ssw_RarPars_t_ = type { i32, i32, i32, i32, i32, i32, i32, i32, i32, i32, i32, i32, i32, i32, i32, i32, i32, i32, i32, ptr, ptr }
%struct.Ssw_RarMan_t_ = type { ptr, i32, i32, ptr, ptr, ptr, ptr, ptr, ptr, ptr, ptr, ptr, ptr, i32, i32, ptr }
%struct.Aig_Obj_t_ = type { %union.anon, ptr, ptr, i64, i32, i32, %union.anon.0 }
%union.anon = type { ptr }
%union.anon.0 = type { ptr }

; Function Attrs: inlinehint nounwind uwtable
define internal ptr @Ssw_RarObjSim(ptr noundef %0, i32 noundef %1) #4 {
  %3 = alloca ptr, align 8
  %4 = alloca i32, align 4
  store ptr %0, ptr %3, align 8, !tbaa !27
  store i32 %1, ptr %4, align 4, !tbaa !24
  %5 = load ptr, ptr %3, align 8, !tbaa !27
  %6 = getelementptr inbounds nuw %struct.Ssw_RarMan_t_, ptr %5, i32 0, i32 6
  %7 = load ptr, ptr %6, align 8, !tbaa !59
  %8 = load ptr, ptr %3, align 8, !tbaa !27
  %9 = getelementptr inbounds nuw %struct.Ssw_RarMan_t_, ptr %8, i32 0, i32 0
  %10 = load ptr, ptr %9, align 8, !tbaa !49
  %11 = getelementptr inbounds nuw %struct.Ssw_RarPars_t_, ptr %10, i32 0, i32 1
  %12 = load i32, ptr %11, align 4, !tbaa !12
  %13 = load i32, ptr %4, align 4, !tbaa !24
  %14 = mul nsw i32 %12, %13
  %15 = sext i32 %14 to i64
  %16 = getelementptr inbounds i64, ptr %7, i64 %15
  ret ptr %16
}

; Function Attrs: inlinehint nounwind uwtable
define internal i32 @Aig_ObjId(ptr noundef %0) #4 {
  %2 = alloca ptr, align 8
  store ptr %0, ptr %2, align 8, !tbaa !47
  %3 = load ptr, ptr %2, align 8, !tbaa !47
  %4 = getelementptr inbounds nuw %struct.Aig_Obj_t_, ptr %3, i32 0, i32 5
  %5 = load i32, ptr %4, align 4, !tbaa !60
  ret i32 %5
}

; Function Attrs: nounwind uwtable
define i32 @Ssw_RarManObjWhichOne(ptr noundef %0, ptr noundef %1) #0 {
  %3 = alloca i32, align 4
  %4 = alloca ptr, align 8
  %5 = alloca ptr, align 8
  %6 = alloca ptr, align 8
  %7 = alloca i64, align 8
  %8 = alloca i32, align 4
  %9 = alloca i32, align 4
  %10 = alloca i32, align 4
  store ptr %0, ptr %4, align 8, !tbaa !27
  store ptr %1, ptr %5, align 8, !tbaa !47
  call void @llvm.lifetime.start.p0(i64 8, ptr %6) #11
  %11 = load ptr, ptr %4, align 8, !tbaa !27
  %12 = load ptr, ptr %5, align 8, !tbaa !47
  %13 = call i32 @Aig_ObjId(ptr noundef %12)
  %14 = call ptr @Ssw_RarObjSim(ptr noundef %11, i32 noundef %13)
  store ptr %14, ptr %6, align 8, !tbaa !48
  call void @llvm.lifetime.start.p0(i64 8, ptr %7) #11
  store i64 0, ptr %7, align 8, !tbaa !50
  call void @llvm.lifetime.start.p0(i64 4, ptr %8) #11
  call void @llvm.lifetime.start.p0(i64 4, ptr %9) #11
  store i32 0, ptr %8, align 4, !tbaa !24
  br label %15

15:                                               ; preds = %60, %2
  %16 = load i32, ptr %8, align 4, !tbaa !24
  %17 = load ptr, ptr %4, align 8, !tbaa !27
  %18 = getelementptr inbounds nuw %struct.Ssw_RarMan_t_, ptr %17, i32 0, i32 0
  %19 = load ptr, ptr %18, align 8, !tbaa !49
  %20 = getelementptr inbounds nuw %struct.Ssw_RarPars_t_, ptr %19, i32 0, i32 1
  %21 = load i32, ptr %20, align 4, !tbaa !12
  %22 = icmp slt i32 %16, %21
  br i1 %22, label %23, label %63

23:                                               ; preds = %15
  %24 = load ptr, ptr %6, align 8, !tbaa !48
  %25 = load i32, ptr %8, align 4, !tbaa !24
  %26 = sext i32 %25 to i64
  %27 = getelementptr inbounds i64, ptr %24, i64 %26
  %28 = load i64, ptr %27, align 8, !tbaa !50
  %29 = load i64, ptr %7, align 8, !tbaa !50
  %30 = xor i64 %28, %29
  %31 = icmp ne i64 %30, 0
  br i1 %31, label %32, label %59

32:                                               ; preds = %23
  store i32 0, ptr %9, align 4, !tbaa !24
  br label %33

33:                                               ; preds = %51, %32
  %34 = load i32, ptr %9, align 4, !tbaa !24
  %35 = icmp slt i32 %34, 64
  br i1 %35, label %36, label %54

36:                                               ; preds = %33
  %37 = load ptr, ptr %6, align 8, !tbaa !48
  %38 = load i32, ptr %8, align 4, !tbaa !24
  %39 = sext i32 %38 to i64
  %40 = getelementptr inbounds i64, ptr %37, i64 %39
  %41 = load i64, ptr %40, align 8, !tbaa !50
  %42 = load i64, ptr %7, align 8, !tbaa !50
  %43 = xor i64 %41, %42
  %44 = load i32, ptr %9, align 4, !tbaa !24
  %45 = zext i32 %44 to i64
  %46 = lshr i64 %43, %45
  %47 = and i64 %46, 1
  %48 = icmp ne i64 %47, 0
  br i1 %48, label %49, label %50

49:                                               ; preds = %36
  br label %54

50:                                               ; preds = %36
  br label %51

51:                                               ; preds = %50
  %52 = load i32, ptr %9, align 4, !tbaa !24
  %53 = add nsw i32 %52, 1
  store i32 %53, ptr %9, align 4, !tbaa !24
  br label %33, !llvm.loop !106

54:                                               ; preds = %49, %33
  %55 = load i32, ptr %8, align 4, !tbaa !24
  %56 = mul nsw i32 %55, 64
  %57 = load i32, ptr %9, align 4, !tbaa !24
  %58 = add nsw i32 %56, %57
  store i32 %58, ptr %3, align 4
  store i32 1, ptr %10, align 4
  br label %64

59:                                               ; preds = %23
  br label %60

60:                                               ; preds = %59
  %61 = load i32, ptr %8, align 4, !tbaa !24
  %62 = add nsw i32 %61, 1
  store i32 %62, ptr %8, align 4, !tbaa !24
  br label %15, !llvm.loop !107

63:                                               ; preds = %15
  store i32 -1, ptr %3, align 4
  store i32 1, ptr %10, align 4
  br label %64

64:                                               ; preds = %63, %54
  call void @llvm.lifetime.end.p0(i64 4, ptr %9) #11
  call void @llvm.lifetime.end.p0(i64 4, ptr %8) #11
  call void @llvm.lifetime.end.p0(i64 8, ptr %7) #11
  call void @llvm.lifetime.end.p0(i64 8, ptr %6) #11
  %65 = load i32, ptr %3, align 4
  ret i32 %65
}