; Function Attrs: nofree norecurse nosync nounwind memory(read, inaccessiblemem: none) uwtable
define i32 @Ssw_RarManObjWhichOne(ptr noundef readonly captures(none) %0, ptr noundef readonly captures(none) %1) local_unnamed_addr #8 {
  %3 = getelementptr i8, ptr %1, i64 36
  %.val = load i32, ptr %3, align 4, !tbaa !39
  %.val19 = load ptr, ptr %0, align 8, !tbaa !33
  %4 = getelementptr i8, ptr %0, i64 40
  %.val20 = load ptr, ptr %4, align 8, !tbaa !34
  %5 = getelementptr i8, ptr %.val19, i64 4
  %.val19.val = load i32, ptr %5, align 4, !tbaa !10
  %6 = mul nsw i32 %.val19.val, %.val
  %7 = sext i32 %6 to i64
  %8 = getelementptr inbounds i64, ptr %.val20, i64 %7
  %9 = icmp sgt i32 %.val19.val, 0
  br i1 %9, label %.lr.ph.preheader, label %.loopexit

.lr.ph.preheader:                                 ; preds = %2
  %wide.trip.count = zext nneg i32 %.val19.val to i64
  br label %.lr.ph

.lr.ph:                                           ; preds = %.lr.ph.preheader, %20
  %indvars.iv = phi i64 [ 0, %.lr.ph.preheader ], [ %indvars.iv.next, %20 ]
  %10 = getelementptr inbounds nuw i64, ptr %8, i64 %indvars.iv
  %11 = load i64, ptr %10, align 8, !tbaa !40
  %.not = icmp eq i64 %11, 0
  br i1 %.not, label %20, label %.preheader

.preheader:                                       ; preds = %.lr.ph
  %12 = trunc nuw nsw i64 %indvars.iv to i32
  br label %13

13:                                               ; preds = %.preheader, %16
  %indvars.iv27 = phi i64 [ 0, %.preheader ], [ %indvars.iv.next28, %16 ]
  %14 = shl nuw i64 1, %indvars.iv27
  %15 = and i64 %14, %11
  %.not18 = icmp eq i64 %15, 0
  br i1 %.not18, label %16, label %.split.loop.exit

16:                                               ; preds = %13
  %indvars.iv.next28 = add nuw nsw i64 %indvars.iv27, 1
  %exitcond30.not = icmp eq i64 %indvars.iv.next28, 64
  br i1 %exitcond30.not, label %.split.loop.exit33, label %13, !llvm.loop !91

.split.loop.exit:                                 ; preds = %13
  %17 = trunc nuw nsw i64 %indvars.iv27 to i32
  br label %.split.loop.exit33

.split.loop.exit33:                               ; preds = %16, %.split.loop.exit
  %.0.lcssa = phi i32 [ %17, %.split.loop.exit ], [ 64, %16 ]
  %18 = shl nsw i32 %12, 6
  %19 = add nuw nsw i32 %.0.lcssa, %18
  br label %.loopexit

20:                                               ; preds = %.lr.ph
  %indvars.iv.next = add nuw nsw i64 %indvars.iv, 1
  %exitcond.not = icmp eq i64 %indvars.iv.next, %wide.trip.count
  br i1 %exitcond.not, label %.loopexit, label %.lr.ph, !llvm.loop !92

.loopexit:                                        ; preds = %20, %2, %.split.loop.exit33
  %.017 = phi i32 [ %19, %.split.loop.exit33 ], [ -1, %2 ], [ -1, %20 ]
  ret i32 %.017
}